target datalayout = "e-m:e-p270:32:32-p271:32:32-p272:64:64-i64:64-i128:128-f80:128-n8:16:32:64-S128"
target triple = "x86_64-pc-linux-gnu"

%struct.ECDSA_SIG_st = type { ptr, ptr }

@.str.2 = private unnamed_addr constant [31 x i8] c"../openssl/crypto/ec/ec_asn1.c\00", align 1

; Function Attrs: nounwind uwtable
define void @ECDSA_SIG_free(ptr noundef %0) #0 {
  %2 = alloca ptr, align 8
  store ptr %0, ptr %2, align 8, !tbaa !103
  %3 = load ptr, ptr %2, align 8, !tbaa !103
  %4 = icmp eq ptr %3, null
  br i1 %4, label %5, label %6

5:                                                ; preds = %1
  br label %14

6:                                                ; preds = %1
  %7 = load ptr, ptr %2, align 8, !tbaa !103
  %8 = getelementptr inbounds nuw %struct.ECDSA_SIG_st, ptr %7, i32 0, i32 0
  %9 = load ptr, ptr %8, align 8, !tbaa !105
  call void @BN_clear_free(ptr noundef %9)
  %10 = load ptr, ptr %2, align 8, !tbaa !103
  %11 = getelementptr inbounds nuw %struct.ECDSA_SIG_st, ptr %10, i32 0, i32 1
  %12 = load ptr, ptr %11, align 8, !tbaa !107
  call void @BN_clear_free(ptr noundef %12)
  %13 = load ptr, ptr %2, align 8, !tbaa !103
  call void @CRYPTO_free(ptr noundef %13, ptr noundef @.str.2, i32 noundef 1208)
  br label %14

14:                                               ; preds = %6, %5
  ret void
}