; Function Attrs: nounwind uwtable
define void @ECDSA_SIG_free(ptr noundef %0) local_unnamed_addr #0 {
  %2 = icmp eq ptr %0, null
  br i1 %2, label %7, label %3

3:                                                ; preds = %1
  %4 = load ptr, ptr %0, align 8, !tbaa !75
  tail call void @BN_clear_free(ptr noundef %4) #8
  %5 = getelementptr inbounds nuw i8, ptr %0, i64 8
  %6 = load ptr, ptr %5, align 8, !tbaa !77
  tail call void @BN_clear_free(ptr noundef %6) #8
  tail call void @CRYPTO_free(ptr noundef nonnull %0, ptr noundef nonnull @.str.2, i32 noundef 1208) #8
  br label %7

7:                                                ; preds = %1, %3
  ret void
}